target datalayout = "e-m:e-p270:32:32-p271:32:32-p272:64:64-i64:64-i128:128-f80:128-n8:16:32:64-S128"
target triple = "x86_64-pc-linux-gnu"

%struct.CVodeMemRec = type { ptr, double, ptr, ptr, i32, i32, double, double, ptr, i32, i32, ptr, ptr, i32, i32, ptr, i32, i32, double, double, ptr, i32, i32, i32, i32, ptr, ptr, ptr, i32, i32, ptr, ptr, ptr, i32, double, i32, i32, double, ptr, ptr, ptr, i32, ptr, ptr, i32, i32, i32, double, ptr, ptr, ptr, [13 x ptr], ptr, ptr, ptr, ptr, ptr, ptr, ptr, ptr, ptr, [13 x ptr], ptr, ptr, ptr, ptr, [13 x ptr], ptr, ptr, ptr, ptr, ptr, i32, [13 x ptr], ptr, ptr, ptr, ptr, ptr, i32, i32, double, i32, i32, i32, i32, i32, double, double, double, double, double, double, double, double, [14 x double], [6 x double], [13 x double], double, double, double, double, double, double, double, double, i32, double, double, i32, double, double, ptr, i32, i64, i32, i32, i32, double, double, double, double, double, double, double, double, double, double, double, double, i64, i32, i64, i64, i64, i64, i64, i64, i64, i64, i64, ptr, i64, i64, ptr, i64, i64, ptr, i64, i64, i64, i64, i64, i64, i32, double, double, double, i64, i64, i64, i64, i64, i64, ptr, i32, ptr, i32, ptr, i32, ptr, i32, i32, i64, i32, ptr, i32, ptr, ptr, ptr, ptr, ptr, ptr, i32, i32, ptr, ptr, ptr, ptr, ptr, i64, double, i32, i32, i64, double, double, double, i32, i32, double, i32, i32, i32, i32, i32, i32, i32, i32, i32, i32, i32, i32, i32, i32, i32, i32, ptr, i64, i32, [6 x [4 x double]], i32, i64, ptr, i32, ptr, ptr, double, double, double, ptr, ptr, ptr, double, double, i32, i32, i64, ptr, i32, ptr, i32, i32, [13 x double], ptr, ptr, ptr, i32, ptr, i32 }
%struct.CVadjMemRec = type { double, double, i32, i32, double, i32, double, ptr, i32, ptr, i32, ptr, i32, ptr, i64, i64, ptr, i64, i32, ptr, ptr, ptr, ptr, i32, i32, i32, i32, [13 x ptr], [13 x ptr], [13 x double], ptr, ptr }
%struct.CVodeBMemRec = type { i32, double, ptr, i32, i32, ptr, ptr, ptr, ptr, ptr, ptr, ptr, ptr, ptr, double, ptr, ptr }
%struct.CVBBDPrecDataRecB = type { ptr, ptr }

@.str = private unnamed_addr constant [122 x i8] c"generated/home/dtcxzyw/WorkSpace/Projects/compilers/llvm-opt-benchmark/bench/sundials/sundials/src/cvodes/cvodes_bbdpre.c\00", align 1
@.str.11 = private unnamed_addr constant [25 x i8] c"Bad t for interpolation.\00", align 1
@__func__.cvCfnWrapper = private unnamed_addr constant [13 x i8] c"cvCfnWrapper\00", align 1

; Function Attrs: nounwind uwtable
define internal i32 @cvCfnWrapper(i64 noundef %0, double noundef %1, ptr noundef %2, ptr noundef %3) #0 {
  %5 = alloca i32, align 4
  %6 = alloca i64, align 8
  %7 = alloca double, align 8
  %8 = alloca ptr, align 8
  %9 = alloca ptr, align 8
  %10 = alloca ptr, align 8
  %11 = alloca ptr, align 8
  %12 = alloca ptr, align 8
  %13 = alloca ptr, align 8
  %14 = alloca i32, align 4
  %15 = alloca i32, align 4
  store i64 %0, ptr %6, align 8, !tbaa !7
  store double %1, ptr %7, align 8, !tbaa !9
  store ptr %2, ptr %8, align 8, !tbaa !75
  store ptr %3, ptr %9, align 8, !tbaa !3
  call void @llvm.lifetime.start.p0(i64 8, ptr %10) #6
  call void @llvm.lifetime.start.p0(i64 8, ptr %11) #6
  call void @llvm.lifetime.start.p0(i64 8, ptr %12) #6
  call void @llvm.lifetime.start.p0(i64 8, ptr %13) #6
  call void @llvm.lifetime.start.p0(i64 4, ptr %14) #6
  %16 = load ptr, ptr %9, align 8, !tbaa !3
  store ptr %16, ptr %10, align 8, !tbaa !11
  %17 = load ptr, ptr %10, align 8, !tbaa !11
  %18 = getelementptr inbounds nuw %struct.CVodeMemRec, ptr %17, i32 0, i32 248
  %19 = load ptr, ptr %18, align 8, !tbaa !79
  store ptr %19, ptr %11, align 8, !tbaa !80
  %20 = load ptr, ptr %11, align 8, !tbaa !80
  %21 = getelementptr inbounds nuw %struct.CVadjMemRec, ptr %20, i32 0, i32 9
  %22 = load ptr, ptr %21, align 8, !tbaa !99
  store ptr %22, ptr %12, align 8, !tbaa !87
  %23 = load ptr, ptr %12, align 8, !tbaa !87
  %24 = getelementptr inbounds nuw %struct.CVodeBMemRec, ptr %23, i32 0, i32 12
  %25 = load ptr, ptr %24, align 8, !tbaa !97
  store ptr %25, ptr %13, align 8, !tbaa !92
  %26 = load ptr, ptr %13, align 8, !tbaa !92
  %27 = getelementptr inbounds nuw %struct.CVBBDPrecDataRecB, ptr %26, i32 0, i32 1
  %28 = load ptr, ptr %27, align 8, !tbaa !96
  %29 = icmp eq ptr %28, null
  br i1 %29, label %30, label %31

30:                                               ; preds = %4
  store i32 0, ptr %5, align 4
  store i32 1, ptr %15, align 4
  br label %59

31:                                               ; preds = %4
  %32 = load ptr, ptr %11, align 8, !tbaa !80
  %33 = getelementptr inbounds nuw %struct.CVadjMemRec, ptr %32, i32 0, i32 22
  %34 = load ptr, ptr %33, align 8, !tbaa !100
  %35 = load ptr, ptr %10, align 8, !tbaa !11
  %36 = load double, ptr %7, align 8, !tbaa !9
  %37 = load ptr, ptr %11, align 8, !tbaa !80
  %38 = getelementptr inbounds nuw %struct.CVadjMemRec, ptr %37, i32 0, i32 30
  %39 = load ptr, ptr %38, align 8, !tbaa !101
  %40 = call i32 %34(ptr noundef %35, double noundef %36, ptr noundef %39, ptr noundef null)
  store i32 %40, ptr %14, align 4, !tbaa !54
  %41 = load i32, ptr %14, align 4, !tbaa !54
  %42 = icmp ne i32 %41, 0
  br i1 %42, label %43, label %45

43:                                               ; preds = %31
  %44 = load ptr, ptr %10, align 8, !tbaa !11
  call void (ptr, i32, i32, ptr, ptr, ptr, ...) @cvProcessError(ptr noundef %44, i32 noundef -1, i32 noundef 947, ptr noundef @__func__.cvCfnWrapper, ptr noundef @.str, ptr noundef @.str.11)
  store i32 -1, ptr %5, align 4
  store i32 1, ptr %15, align 4
  br label %59

45:                                               ; preds = %31
  %46 = load ptr, ptr %13, align 8, !tbaa !92
  %47 = getelementptr inbounds nuw %struct.CVBBDPrecDataRecB, ptr %46, i32 0, i32 1
  %48 = load ptr, ptr %47, align 8, !tbaa !96
  %49 = load i64, ptr %6, align 8, !tbaa !7
  %50 = load double, ptr %7, align 8, !tbaa !9
  %51 = load ptr, ptr %11, align 8, !tbaa !80
  %52 = getelementptr inbounds nuw %struct.CVadjMemRec, ptr %51, i32 0, i32 30
  %53 = load ptr, ptr %52, align 8, !tbaa !101
  %54 = load ptr, ptr %8, align 8, !tbaa !75
  %55 = load ptr, ptr %12, align 8, !tbaa !87
  %56 = getelementptr inbounds nuw %struct.CVodeBMemRec, ptr %55, i32 0, i32 9
  %57 = load ptr, ptr %56, align 8, !tbaa !102
  %58 = call i32 %48(i64 noundef %49, double noundef %50, ptr noundef %53, ptr noundef %54, ptr noundef %57)
  store i32 %58, ptr %5, align 4
  store i32 1, ptr %15, align 4
  br label %59

59:                                               ; preds = %45, %43, %30
  call void @llvm.lifetime.end.p0(i64 4, ptr %14) #6
  call void @llvm.lifetime.end.p0(i64 8, ptr %13) #6
  call void @llvm.lifetime.end.p0(i64 8, ptr %12) #6
  call void @llvm.lifetime.end.p0(i64 8, ptr %11) #6
  call void @llvm.lifetime.end.p0(i64 8, ptr %10) #6
  %60 = load i32, ptr %5, align 4
  ret i32 %60
}