; Function Attrs: nounwind uwtable
define internal i32 @cvCfnWrapper(i64 noundef %0, double noundef %1, ptr noundef %2, ptr noundef %3) #0 {
  %5 = getelementptr inbounds nuw i8, ptr %3, i64 2672
  %6 = load ptr, ptr %5, align 8, !tbaa !74
  %7 = getelementptr inbounds nuw i8, ptr %6, i64 64
  %8 = load ptr, ptr %7, align 8, !tbaa !91
  %9 = getelementptr inbounds nuw i8, ptr %8, i64 88
  %10 = load ptr, ptr %9, align 8, !tbaa !89
  %11 = getelementptr inbounds nuw i8, ptr %10, i64 8
  %12 = load ptr, ptr %11, align 8, !tbaa !88
  %13 = icmp eq ptr %12, null
  br i1 %13, label %27, label %14

14:                                               ; preds = %4
  %15 = getelementptr inbounds nuw i8, ptr %6, i64 168
  %16 = load ptr, ptr %15, align 8, !tbaa !92
  %17 = getelementptr inbounds nuw i8, ptr %6, i64 504
  %18 = load ptr, ptr %17, align 8, !tbaa !93
  %19 = tail call i32 %16(ptr noundef nonnull %3, double noundef %1, ptr noundef %18, ptr noundef null) #10
  %.not = icmp eq i32 %19, 0
  br i1 %.not, label %21, label %20

20:                                               ; preds = %14
  tail call void (ptr, i32, i32, ptr, ptr, ptr, ...) @cvProcessError(ptr noundef nonnull %3, i32 noundef -1, i32 noundef 947, ptr noundef nonnull @__func__.cvCfnWrapper, ptr noundef nonnull @.str, ptr noundef nonnull @.str.11) #10
  br label %27

21:                                               ; preds = %14
  %22 = load ptr, ptr %11, align 8, !tbaa !88
  %23 = load ptr, ptr %17, align 8, !tbaa !93
  %24 = getelementptr inbounds nuw i8, ptr %8, i64 64
  %25 = load ptr, ptr %24, align 8, !tbaa !94
  %26 = tail call i32 %22(i64 noundef %0, double noundef %1, ptr noundef %23, ptr noundef %2, ptr noundef %25) #10
  br label %27

27:                                               ; preds = %4, %21, %20
  %.0 = phi i32 [ -1, %20 ], [ %26, %21 ], [ 0, %4 ]
  ret i32 %.0
}